; Function Attrs: mustprogress nofree norecurse nosync nounwind willreturn memory(read, inaccessiblemem: none) uwtable
define internal signext i8 @CORD_index_access_fn(i64 noundef %0, ptr noundef readonly captures(none) %1) #13 {
  %3 = load ptr, ptr %1, align 8, !tbaa !41
  %4 = getelementptr inbounds nuw i8, ptr %1, i64 8
  %5 = load i64, ptr %4, align 8, !tbaa !38
  %6 = getelementptr i8, ptr %3, i64 %0
  %7 = getelementptr i8, ptr %6, i64 %5
  %8 = load i8, ptr %7, align 1, !tbaa !11
  ret i8 %8
}